target datalayout = "e-m:e-p270:32:32-p271:32:32-p272:64:64-i64:64-i128:128-f80:128-n8:16:32:64-S128"
target triple = "x86_64-pc-linux-gnu"

@engine_list_head = internal global ptr null, align 8

; Function Attrs: nounwind uwtable
define internal void @engine_list_cleanup() #0 {
  %1 = alloca ptr, align 8
  call void @llvm.lifetime.start.p0(i64 8, ptr %1) #5
  %2 = load ptr, ptr @engine_list_head, align 8, !tbaa !3
  store ptr %2, ptr %1, align 8, !tbaa !3
  br label %3

3:                                                ; preds = %6, %0
  %4 = load ptr, ptr %1, align 8, !tbaa !3
  %5 = icmp ne ptr %4, null
  br i1 %5, label %6, label %10

6:                                                ; preds = %3
  %7 = load ptr, ptr %1, align 8, !tbaa !3
  %8 = call i32 @ENGINE_remove(ptr noundef %7)
  %9 = load ptr, ptr @engine_list_head, align 8, !tbaa !3
  store ptr %9, ptr %1, align 8, !tbaa !3
  br label %3, !llvm.loop !54

10:                                               ; preds = %3
  call void @llvm.lifetime.end.p0(i64 8, ptr %1) #5
  ret void
}