; Function Attrs: nounwind uwtable
define internal void @engine_list_cleanup() #0 {
  %.02 = load ptr, ptr @engine_list_head, align 8, !tbaa !22
  %.not3 = icmp eq ptr %.02, null
  br i1 %.not3, label %._crit_edge, label %.lr.ph

.lr.ph:                                           ; preds = %0, %.lr.ph
  %.04 = phi ptr [ %.0, %.lr.ph ], [ %.02, %0 ]
  %1 = tail call i32 @ENGINE_remove(ptr noundef nonnull %.04)
  %.0 = load ptr, ptr @engine_list_head, align 8, !tbaa !22
  %.not = icmp eq ptr %.0, null
  br i1 %.not, label %._crit_edge, label %.lr.ph, !llvm.loop !50

._crit_edge:                                      ; preds = %.lr.ph, %0
  ret void
}